target datalayout = "e-m:e-p270:32:32-p271:32:32-p272:64:64-i64:64-i128:128-f80:128-n8:16:32:64-S128"
target triple = "x86_64-pc-linux-gnu"

%"class.llvm::codeview::ClassRecord" = type { %"class.llvm::codeview::TagRecord", %"class.llvm::codeview::TypeIndex", %"class.llvm::codeview::TypeIndex", i64 }
%"class.llvm::codeview::TagRecord" = type { %"class.llvm::codeview::TypeRecord", i16, i16, %"class.llvm::codeview::TypeIndex", %"class.llvm::StringRef", %"class.llvm::StringRef" }
%"class.llvm::codeview::TypeRecord" = type { i16 }
%"class.llvm::StringRef" = type { ptr, i64 }
%"class.llvm::codeview::TypeIndex" = type { %"struct.llvm::support::detail::packed_endian_specific_integral" }
%"struct.llvm::support::detail::packed_endian_specific_integral" = type { %struct.anon }
%struct.anon = type { [4 x i8] }
%"class.llvm::pdb::NativeTypeUDT" = type <{ %"class.llvm::pdb::NativeRawSymbol", %"class.llvm::codeview::TypeIndex", [4 x i8], %"class.std::optional", %"class.std::optional.0", ptr, ptr, %"class.std::optional.8", [6 x i8] }>
%"class.llvm::pdb::NativeRawSymbol" = type { %"class.llvm::pdb::IPDBRawSymbol", ptr, i32, i32 }
%"class.llvm::pdb::IPDBRawSymbol" = type { ptr }
%"class.std::optional" = type { %"struct.std::_Optional_base" }
%"struct.std::_Optional_base" = type { %"struct.std::_Optional_payload" }
%"struct.std::_Optional_payload" = type { %"struct.std::_Optional_payload_base.base", [7 x i8] }
%"struct.std::_Optional_payload_base.base" = type <{ %"union.std::_Optional_payload_base<llvm::codeview::ClassRecord>::_Storage", i8 }>
%"union.std::_Optional_payload_base<llvm::codeview::ClassRecord>::_Storage" = type { %"class.llvm::codeview::ClassRecord" }
%"class.std::optional.0" = type { %"struct.std::_Optional_base.1" }
%"struct.std::_Optional_base.1" = type { %"struct.std::_Optional_payload.3" }
%"struct.std::_Optional_payload.3" = type { %"struct.std::_Optional_payload_base.base.5", [7 x i8] }
%"struct.std::_Optional_payload_base.base.5" = type <{ %"union.std::_Optional_payload_base<llvm::codeview::UnionRecord>::_Storage", i8 }>
%"union.std::_Optional_payload_base<llvm::codeview::UnionRecord>::_Storage" = type { %"struct.llvm::codeview::UnionRecord" }
%"struct.llvm::codeview::UnionRecord" = type { %"class.llvm::codeview::TagRecord", i64 }
%"class.std::optional.8" = type { %"struct.std::_Optional_base.9" }
%"struct.std::_Optional_base.9" = type { %"struct.std::_Optional_payload.11" }
%"struct.std::_Optional_payload.11" = type { %"struct.std::_Optional_payload_base.base.13", i8 }
%"struct.std::_Optional_payload_base.base.13" = type <{ %"union.std::_Optional_payload_base<llvm::codeview::ModifierRecord>::_Storage", i8 }>
%"union.std::_Optional_payload_base<llvm::codeview::ModifierRecord>::_Storage" = type { %"class.llvm::codeview::ModifierRecord" }
%"class.llvm::codeview::ModifierRecord" = type { %"class.llvm::codeview::TypeRecord", %"class.llvm::codeview::TypeIndex", i16 }
%"struct.std::_Optional_payload_base" = type <{ %"union.std::_Optional_payload_base<llvm::codeview::ClassRecord>::_Storage", i8, [7 x i8] }>
%"struct.std::_Optional_payload_base.4" = type <{ %"union.std::_Optional_payload_base<llvm::codeview::UnionRecord>::_Storage", i8, [7 x i8] }>

; Function Attrs: mustprogress nounwind uwtable
define linkonce_odr hidden noundef nonnull align 8 dereferenceable(56) ptr @_ZNKSt22_Optional_payload_baseIN4llvm8codeview11UnionRecordEE6_M_getEv(ptr noundef nonnull align 8 dereferenceable(57) %0) #0 comdat align 2 {
  %2 = alloca ptr, align 8
  store ptr %0, ptr %2, align 8
  %3 = load ptr, ptr %2, align 8
  %4 = getelementptr inbounds nuw %"struct.std::_Optional_payload_base.4", ptr %3, i32 0, i32 0
  ret ptr %4
}

; Function Attrs: mustprogress nounwind uwtable
define linkonce_odr hidden noundef nonnull align 8 dereferenceable(64) ptr @_ZNKSt22_Optional_payload_baseIN4llvm8codeview11ClassRecordEE6_M_getEv(ptr noundef nonnull align 8 dereferenceable(65) %0) #0 comdat align 2 {
  %2 = alloca ptr, align 8
  store ptr %0, ptr %2, align 8
  %3 = load ptr, ptr %2, align 8
  %4 = getelementptr inbounds nuw %"struct.std::_Optional_payload_base", ptr %3, i32 0, i32 0
  ret ptr %4
}

; Function Attrs: mustprogress nounwind uwtable
define linkonce_odr hidden noundef nonnull align 8 dereferenceable(56) ptr @_ZNKSt19_Optional_base_implIN4llvm8codeview11UnionRecordESt14_Optional_baseIS2_Lb1ELb1EEE6_M_getEv(ptr noundef nonnull align 1 dereferenceable(1) %0) #0 comdat align 2 {
  %2 = alloca ptr, align 8
  store ptr %0, ptr %2, align 8
  %3 = load ptr, ptr %2, align 8
  br label %4

4:                                                ; preds = %1
  br label %5

5:                                                ; preds = %4
  %6 = getelementptr inbounds nuw %"struct.std::_Optional_base.1", ptr %3, i32 0, i32 0
  %7 = call noundef nonnull align 8 dereferenceable(56) ptr @_ZNKSt22_Optional_payload_baseIN4llvm8codeview11UnionRecordEE6_M_getEv(ptr noundef nonnull align 8 dereferenceable(57) %6) #7
  ret ptr %7
}

; Function Attrs: mustprogress nounwind uwtable
define linkonce_odr hidden noundef nonnull align 8 dereferenceable(64) ptr @_ZNKSt19_Optional_base_implIN4llvm8codeview11ClassRecordESt14_Optional_baseIS2_Lb1ELb1EEE6_M_getEv(ptr noundef nonnull align 1 dereferenceable(1) %0) #0 comdat align 2 {
  %2 = alloca ptr, align 8
  store ptr %0, ptr %2, align 8
  %3 = load ptr, ptr %2, align 8
  br label %4

4:                                                ; preds = %1
  br label %5

5:                                                ; preds = %4
  %6 = getelementptr inbounds nuw %"struct.std::_Optional_base", ptr %3, i32 0, i32 0
  %7 = call noundef nonnull align 8 dereferenceable(64) ptr @_ZNKSt22_Optional_payload_baseIN4llvm8codeview11ClassRecordEE6_M_getEv(ptr noundef nonnull align 8 dereferenceable(65) %6) #7
  ret ptr %7
}

; Function Attrs: mustprogress nounwind uwtable
define linkonce_odr hidden noundef zeroext i1 @_ZNKSt19_Optional_base_implIN4llvm8codeview11ClassRecordESt14_Optional_baseIS2_Lb1ELb1EEE13_M_is_engagedEv(ptr noundef nonnull align 1 dereferenceable(1) %0) #0 comdat align 2 {
  %2 = alloca ptr, align 8
  store ptr %0, ptr %2, align 8
  %3 = load ptr, ptr %2, align 8
  %4 = getelementptr inbounds nuw %"struct.std::_Optional_base", ptr %3, i32 0, i32 0
  %5 = getelementptr inbounds nuw %"struct.std::_Optional_payload_base", ptr %4, i32 0, i32 1
  %6 = load i8, ptr %5, align 8
  %7 = trunc i8 %6 to i1
  ret i1 %7
}

; Function Attrs: mustprogress nounwind uwtable
define linkonce_odr hidden noundef i64 @_ZNK4llvm8codeview11UnionRecord7getSizeEv(ptr noundef nonnull align 8 dereferenceable(56) %0) #0 comdat align 2 {
  %2 = alloca ptr, align 8
  store ptr %0, ptr %2, align 8
  %3 = load ptr, ptr %2, align 8
  %4 = getelementptr inbounds nuw %"struct.llvm::codeview::UnionRecord", ptr %3, i32 0, i32 1
  %5 = load i64, ptr %4, align 8
  ret i64 %5
}

; Function Attrs: mustprogress nounwind uwtable
define linkonce_odr hidden noundef ptr @_ZNKSt8optionalIN4llvm8codeview11UnionRecordEEptEv(ptr noundef nonnull align 8 dereferenceable(64) %0) #0 comdat align 2 {
  %2 = alloca ptr, align 8
  store ptr %0, ptr %2, align 8
  %3 = load ptr, ptr %2, align 8
  %4 = call noundef nonnull align 8 dereferenceable(56) ptr @_ZNKSt19_Optional_base_implIN4llvm8codeview11UnionRecordESt14_Optional_baseIS2_Lb1ELb1EEE6_M_getEv(ptr noundef nonnull align 1 dereferenceable(1) %3) #7
  ret ptr %4
}

; Function Attrs: mustprogress nounwind uwtable
define linkonce_odr hidden noundef i64 @_ZNK4llvm8codeview11ClassRecord7getSizeEv(ptr noundef nonnull align 8 dereferenceable(64) %0) #0 comdat align 2 {
  %2 = alloca ptr, align 8
  store ptr %0, ptr %2, align 8
  %3 = load ptr, ptr %2, align 8
  %4 = getelementptr inbounds nuw %"class.llvm::codeview::ClassRecord", ptr %3, i32 0, i32 3
  %5 = load i64, ptr %4, align 8
  ret i64 %5
}

; Function Attrs: mustprogress nounwind uwtable
define linkonce_odr hidden noundef ptr @_ZNKSt8optionalIN4llvm8codeview11ClassRecordEEptEv(ptr noundef nonnull align 8 dereferenceable(72) %0) #0 comdat align 2 {
  %2 = alloca ptr, align 8
  store ptr %0, ptr %2, align 8
  %3 = load ptr, ptr %2, align 8
  %4 = call noundef nonnull align 8 dereferenceable(64) ptr @_ZNKSt19_Optional_base_implIN4llvm8codeview11ClassRecordESt14_Optional_baseIS2_Lb1ELb1EEE6_M_getEv(ptr noundef nonnull align 1 dereferenceable(1) %3) #7
  ret ptr %4
}

; Function Attrs: mustprogress nounwind uwtable
define linkonce_odr hidden noundef zeroext i1 @_ZNKSt8optionalIN4llvm8codeview11ClassRecordEEcvbEv(ptr noundef nonnull align 8 dereferenceable(72) %0) #0 comdat align 2 {
  %2 = alloca ptr, align 8
  store ptr %0, ptr %2, align 8
  %3 = load ptr, ptr %2, align 8
  %4 = call noundef zeroext i1 @_ZNKSt19_Optional_base_implIN4llvm8codeview11ClassRecordESt14_Optional_baseIS2_Lb1ELb1EEE13_M_is_engagedEv(ptr noundef nonnull align 1 dereferenceable(1) %3) #7
  ret i1 %4
}

; Function Attrs: mustprogress nounwind uwtable
define dso_local noundef i64 @_ZNK4llvm3pdb13NativeTypeUDT9getLengthEv(ptr noundef nonnull align 8 dereferenceable(194) %0) unnamed_addr #0 align 2 {
  %2 = alloca i64, align 8
  %3 = alloca ptr, align 8
  store ptr %0, ptr %3, align 8
  %4 = load ptr, ptr %3, align 8
  %5 = getelementptr inbounds nuw %"class.llvm::pdb::NativeTypeUDT", ptr %4, i32 0, i32 5
  %6 = load ptr, ptr %5, align 8
  %7 = icmp ne ptr %6, null
  br i1 %7, label %8, label %15

8:                                                ; preds = %1
  %9 = getelementptr inbounds nuw %"class.llvm::pdb::NativeTypeUDT", ptr %4, i32 0, i32 5
  %10 = load ptr, ptr %9, align 8
  %11 = load ptr, ptr %10, align 8
  %12 = getelementptr inbounds ptr, ptr %11, i64 94
  %13 = load ptr, ptr %12, align 8
  %14 = call noundef i64 %13(ptr noundef nonnull align 8 dereferenceable(194) %10)
  store i64 %14, ptr %2, align 8
  br label %26

15:                                               ; preds = %1
  %16 = getelementptr inbounds nuw %"class.llvm::pdb::NativeTypeUDT", ptr %4, i32 0, i32 3
  %17 = call noundef zeroext i1 @_ZNKSt8optionalIN4llvm8codeview11ClassRecordEEcvbEv(ptr noundef nonnull align 8 dereferenceable(72) %16) #7
  br i1 %17, label %18, label %22

18:                                               ; preds = %15
  %19 = getelementptr inbounds nuw %"class.llvm::pdb::NativeTypeUDT", ptr %4, i32 0, i32 3
  %20 = call noundef ptr @_ZNKSt8optionalIN4llvm8codeview11ClassRecordEEptEv(ptr noundef nonnull align 8 dereferenceable(72) %19) #7
  %21 = call noundef i64 @_ZNK4llvm8codeview11ClassRecord7getSizeEv(ptr noundef nonnull align 8 dereferenceable(64) %20)
  store i64 %21, ptr %2, align 8
  br label %26

22:                                               ; preds = %15
  %23 = getelementptr inbounds nuw %"class.llvm::pdb::NativeTypeUDT", ptr %4, i32 0, i32 4
  %24 = call noundef ptr @_ZNKSt8optionalIN4llvm8codeview11UnionRecordEEptEv(ptr noundef nonnull align 8 dereferenceable(64) %23) #7
  %25 = call noundef i64 @_ZNK4llvm8codeview11UnionRecord7getSizeEv(ptr noundef nonnull align 8 dereferenceable(56) %24)
  store i64 %25, ptr %2, align 8
  br label %26

26:                                               ; preds = %22, %18, %8
  %27 = load i64, ptr %2, align 8
  ret i64 %27
}