; Function Attrs: mustprogress nounwind uwtable
define dso_local noundef i64 @_ZNK4llvm3pdb13NativeTypeUDT9getLengthEv(ptr nocapture noundef nonnull readonly align 8 dereferenceable(194) %0) unnamed_addr #0 align 2 {
  %2 = getelementptr inbounds nuw i8, ptr %0, i64 168
  %3 = load ptr, ptr %2, align 8
  %.not = icmp eq ptr %3, null
  br i1 %.not, label %9, label %4

4:                                                ; preds = %1
  %5 = load ptr, ptr %3, align 8
  %6 = getelementptr inbounds i8, ptr %5, i64 752
  %7 = load ptr, ptr %6, align 8
  %8 = tail call noundef i64 %7(ptr noundef nonnull align 8 dereferenceable(194) %3) #9
  br label %19

9:                                                ; preds = %1
  %10 = getelementptr inbounds i8, ptr %0, i64 96
  %11 = load i8, ptr %10, align 8
  %12 = trunc i8 %11 to i1
  br i1 %12, label %13, label %16

13:                                               ; preds = %9
  %14 = getelementptr inbounds i8, ptr %0, i64 88
  %15 = load i64, ptr %14, align 8
  br label %19

16:                                               ; preds = %9
  %17 = getelementptr inbounds i8, ptr %0, i64 152
  %18 = load i64, ptr %17, align 8
  br label %19

19:                                               ; preds = %16, %13, %4
  %.0 = phi i64 [ %8, %4 ], [ %15, %13 ], [ %18, %16 ]
  ret i64 %.0
}